; Function Attrs: mustprogress uwtable
define internal fastcc void @_ZN12_GLOBAL__N_110BlifDumper3strB5cxx11EN5Yosys5RTLIL8IdStringE(ptr dead_on_unwind noalias nonnull writable align 8 %0, i32 %.0.val) unnamed_addr #5 align 2 personality ptr @__gxx_personality_v0 {
  tail call fastcc void @_ZN5Yosys5RTLILL11unescape_idB5cxx11ERKNS0_8IdStringE(ptr dead_on_unwind noalias writable align 8 %0, i32 %.0.val)
  %2 = getelementptr inbounds nuw i8, ptr %0, i64 8
  %3 = load i64, ptr %2, align 8, !tbaa !12
  %.not = icmp eq i64 %3, 0
  br i1 %.not, label %._crit_edge, label %.lr.ph

.lr.ph:                                           ; preds = %1, %9
  %4 = phi i64 [ %10, %9 ], [ %3, %1 ]
  %.01 = phi i64 [ %11, %9 ], [ 0, %1 ]
  %5 = load ptr, ptr %0, align 8, !tbaa !32
  %6 = getelementptr inbounds nuw i8, ptr %5, i64 %.01
  %7 = load i8, ptr %6, align 1, !tbaa !15
  switch i8 %7, label %9 [
    i8 35, label %8
    i8 61, label %8
    i8 60, label %8
    i8 62, label %8
  ]

8:                                                ; preds = %.lr.ph, %.lr.ph, %.lr.ph, %.lr.ph
  store i8 63, ptr %6, align 1, !tbaa !15
  %.pre = load i64, ptr %2, align 8, !tbaa !12
  br label %9

9:                                                ; preds = %.lr.ph, %8
  %10 = phi i64 [ %4, %.lr.ph ], [ %.pre, %8 ]
  %11 = add nuw i64 %.01, 1
  %12 = icmp ult i64 %11, %10
  br i1 %12, label %.lr.ph, label %._crit_edge, !llvm.loop !254

._crit_edge:                                      ; preds = %9, %1
  ret void
}